target datalayout = "e-m:e-p270:32:32-p271:32:32-p272:64:64-i64:64-i128:128-f80:128-n8:16:32:64-S128"
target triple = "x86_64-pc-linux-gnu"

%struct.magic_set = type { [2 x ptr], %struct.cont, %struct.out, i32, i32, i32, i32, i32, ptr, i64, i32, %struct.anon, %union.VALUETYPE, i16, i16, i16, i16, i16, i16, i64, i64, i64 }
%struct.cont = type { i64, ptr }
%struct.out = type { ptr, i64, ptr }
%struct.anon = type { ptr, i64, i64, i64 }
%union.VALUETYPE = type { [2 x i64], [112 x i8] }
%struct.mlist = type { ptr, i64, ptr, ptr, ptr }

; Function Attrs: nounwind uwtable
define hidden i32 @file_softmagic(ptr noundef %0, ptr noundef %1, ptr noundef %2, ptr noundef %3, i32 noundef %4, i32 noundef %5) #0 {
  %7 = alloca i32, align 4
  %8 = alloca ptr, align 8
  %9 = alloca ptr, align 8
  %10 = alloca ptr, align 8
  %11 = alloca ptr, align 8
  %12 = alloca i32, align 4
  %13 = alloca i32, align 4
  %14 = alloca ptr, align 8
  %15 = alloca i32, align 4
  %16 = alloca i32, align 4
  %17 = alloca i32, align 4
  %18 = alloca i32, align 4
  %19 = alloca i16, align 2
  %20 = alloca i16, align 2
  %21 = alloca i32, align 4
  store ptr %0, ptr %8, align 8
  store ptr %1, ptr %9, align 8
  store ptr %2, ptr %10, align 8
  store ptr %3, ptr %11, align 8
  store i32 %4, ptr %12, align 4
  store i32 %5, ptr %13, align 4
  store i32 0, ptr %15, align 4
  store i32 0, ptr %16, align 4
  store i32 0, ptr %17, align 4
  store i32 1, ptr %18, align 4
  %22 = load ptr, ptr %11, align 8
  %23 = icmp eq ptr %22, null
  br i1 %23, label %24, label %25

24:                                               ; preds = %6
  store i16 0, ptr %19, align 2
  store ptr %19, ptr %11, align 8
  br label %25

25:                                               ; preds = %24, %6
  %26 = load ptr, ptr %10, align 8
  %27 = icmp eq ptr %26, null
  br i1 %27, label %28, label %29

28:                                               ; preds = %25
  store i16 0, ptr %20, align 2
  store ptr %20, ptr %10, align 8
  br label %29

29:                                               ; preds = %28, %25
  %30 = load ptr, ptr %8, align 8
  %31 = getelementptr inbounds %struct.magic_set, ptr %30, i32 0, i32 0
  %32 = getelementptr inbounds [2 x ptr], ptr %31, i64 0, i64 0
  %33 = load ptr, ptr %32, align 8
  %34 = getelementptr inbounds %struct.mlist, ptr %33, i32 0, i32 3
  %35 = load ptr, ptr %34, align 8
  store ptr %35, ptr %14, align 8
  br label %36

36:                                               ; preds = %72, %29
  %37 = load ptr, ptr %14, align 8
  %38 = load ptr, ptr %8, align 8
  %39 = getelementptr inbounds %struct.magic_set, ptr %38, i32 0, i32 0
  %40 = getelementptr inbounds [2 x ptr], ptr %39, i64 0, i64 0
  %41 = load ptr, ptr %40, align 8
  %42 = icmp ne ptr %37, %41
  br i1 %42, label %43, label %76

43:                                               ; preds = %36
  %44 = load ptr, ptr %8, align 8
  %45 = load ptr, ptr %14, align 8
  %46 = getelementptr inbounds %struct.mlist, ptr %45, i32 0, i32 0
  %47 = load ptr, ptr %46, align 8
  %48 = load ptr, ptr %14, align 8
  %49 = getelementptr inbounds %struct.mlist, ptr %48, i32 0, i32 1
  %50 = load i64, ptr %49, align 8
  %51 = load ptr, ptr %9, align 8
  %52 = load i32, ptr %12, align 4
  %53 = load i32, ptr %13, align 4
  %54 = load ptr, ptr %10, align 8
  %55 = load ptr, ptr %11, align 8
  %56 = call i32 @match(ptr noundef %44, ptr noundef %47, i64 noundef %50, ptr noundef %51, i64 noundef 0, i32 noundef %52, i32 noundef %53, i32 noundef 0, ptr noundef %54, ptr noundef %55, ptr noundef %16, ptr noundef %17, ptr noundef %18, ptr noundef null, ptr noundef null)
  store i32 %56, ptr %21, align 4
  %57 = load i32, ptr %21, align 4
  switch i32 %57, label %61 [
    i32 -1, label %58
    i32 0, label %60
  ]

58:                                               ; preds = %43
  %59 = load i32, ptr %21, align 4
  store i32 %59, ptr %7, align 4
  br label %78

60:                                               ; preds = %43
  br label %72

61:                                               ; preds = %43
  %62 = load ptr, ptr %8, align 8
  %63 = getelementptr inbounds %struct.magic_set, ptr %62, i32 0, i32 6
  %64 = load i32, ptr %63, align 4
  %65 = and i32 %64, 32
  %66 = icmp eq i32 %65, 0
  br i1 %66, label %67, label %69

67:                                               ; preds = %61
  %68 = load i32, ptr %21, align 4
  store i32 %68, ptr %7, align 4
  br label %78

69:                                               ; preds = %61
  %70 = load i32, ptr %21, align 4
  store i32 %70, ptr %15, align 4
  br label %71

71:                                               ; preds = %69
  br label %72

72:                                               ; preds = %71, %60
  %73 = load ptr, ptr %14, align 8
  %74 = getelementptr inbounds %struct.mlist, ptr %73, i32 0, i32 3
  %75 = load ptr, ptr %74, align 8
  store ptr %75, ptr %14, align 8
  br label %36

76:                                               ; preds = %36
  %77 = load i32, ptr %15, align 4
  store i32 %77, ptr %7, align 4
  br label %78

78:                                               ; preds = %76, %67, %58
  %79 = load i32, ptr %7, align 4
  ret i32 %79
}