; Function Attrs: nounwind uwtable
define hidden i32 @file_softmagic(ptr noundef %0, ptr noundef %1, ptr noundef %2, ptr noundef %3, i32 noundef %4, i32 noundef %5) local_unnamed_addr #0 {
  %7 = alloca i32, align 4
  %8 = alloca i32, align 4
  %9 = alloca i32, align 4
  %10 = alloca i16, align 2
  %11 = alloca i16, align 2
  store i32 0, ptr %7, align 4
  store i32 0, ptr %8, align 4
  store i32 1, ptr %9, align 4
  %12 = icmp eq ptr %3, null
  br i1 %12, label %13, label %14

13:                                               ; preds = %6
  store i16 0, ptr %10, align 2
  br label %14

14:                                               ; preds = %13, %6
  %.023 = phi ptr [ %10, %13 ], [ %3, %6 ]
  %15 = icmp eq ptr %2, null
  br i1 %15, label %16, label %17

16:                                               ; preds = %14
  store i16 0, ptr %11, align 2
  br label %17

17:                                               ; preds = %16, %14
  %.022 = phi ptr [ %11, %16 ], [ %2, %14 ]
  %18 = load ptr, ptr %0, align 8
  %19 = getelementptr inbounds i8, ptr %0, i64 68
  %.021.in27 = getelementptr inbounds i8, ptr %18, i64 24
  %.02128 = load ptr, ptr %.021.in27, align 8
  %.not29 = icmp eq ptr %.02128, %18
  br i1 %.not29, label %._crit_edge, label %.lr.ph

.lr.ph:                                           ; preds = %17, %28
  %.02131 = phi ptr [ %.021, %28 ], [ %.02128, %17 ]
  %.02030 = phi i32 [ %.1, %28 ], [ 0, %17 ]
  %20 = load ptr, ptr %.02131, align 8
  %21 = getelementptr inbounds i8, ptr %.02131, i64 8
  %22 = load i64, ptr %21, align 8
  %23 = call fastcc i32 @match(ptr noundef nonnull %0, ptr noundef %20, i64 noundef %22, ptr noundef %1, i64 noundef 0, i32 noundef %4, i32 noundef %5, i32 noundef 0, ptr noundef nonnull %.022, ptr noundef nonnull %.023, ptr noundef nonnull %7, ptr noundef nonnull %8, ptr noundef nonnull %9, ptr noundef null, ptr noundef null)
  switch i32 %23, label %24 [
    i32 -1, label %._crit_edge
    i32 0, label %28
  ]

24:                                               ; preds = %.lr.ph
  %25 = load i32, ptr %19, align 4
  %26 = and i32 %25, 32
  %27 = icmp eq i32 %26, 0
  br i1 %27, label %._crit_edge, label %28

28:                                               ; preds = %24, %.lr.ph
  %.1 = phi i32 [ %.02030, %.lr.ph ], [ %23, %24 ]
  %.021.in = getelementptr inbounds i8, ptr %.02131, i64 24
  %.021 = load ptr, ptr %.021.in, align 8
  %29 = load ptr, ptr %0, align 8
  %.not = icmp eq ptr %.021, %29
  br i1 %.not, label %._crit_edge, label %.lr.ph

._crit_edge:                                      ; preds = %.lr.ph, %24, %28, %17
  %.0 = phi i32 [ 0, %17 ], [ %.1, %28 ], [ %23, %24 ], [ %23, %.lr.ph ]
  ret i32 %.0
}